target datalayout = "e-m:e-p270:32:32-p271:32:32-p272:64:64-i64:64-i128:128-f80:128-n8:16:32:64-S128"
target triple = "x86_64-pc-linux-gnu"

%struct.rb_io = type { i64, ptr, i32, i32, i32, i32, i64, ptr, %struct.rb_io_internal_buffer, %struct.rb_io_internal_buffer, i64, %struct.rb_io_encoding, ptr, %struct.rb_io_internal_buffer, ptr, i64, i32, i32, i64, i64, i64 }
%struct.rb_io_encoding = type { ptr, ptr, i32, i64 }
%struct.rb_io_internal_buffer = type <{ ptr, i32, i32, i32 }>

@rb_eIOError = dso_local global i64 0, align 8
@.str.7 = private unnamed_addr constant [45 x i8] c"byte oriented read for character buffered IO\00", align 1

; Function Attrs: nounwind sspstrong uwtable
define dso_local void @rb_io_check_byte_readable(ptr noundef %0) #0 {
  %2 = alloca ptr, align 8
  store ptr %0, ptr %2, align 8, !tbaa !7
  %3 = load ptr, ptr %2, align 8, !tbaa !7
  call void @rb_io_check_char_readable(ptr noundef %3)
  %4 = load ptr, ptr %2, align 8, !tbaa !7
  %5 = getelementptr inbounds nuw %struct.rb_io, ptr %4, i32 0, i32 13
  %6 = getelementptr inbounds nuw %struct.rb_io_internal_buffer, ptr %5, i32 0, i32 2
  %7 = load i32, ptr %6, align 4, !tbaa !43
  %8 = icmp ne i32 %7, 0
  br i1 %8, label %9, label %11

9:                                                ; preds = %1
  %10 = load i64, ptr @rb_eIOError, align 8, !tbaa !32
  call void (i64, ptr, ...) @rb_raise(i64 noundef %10, ptr noundef @.str.7) #31
  unreachable

11:                                               ; preds = %1
  ret void
}

; Function Attrs: nounwind sspstrong uwtable
define dso_local void @rb_io_check_readable(ptr noundef %0) #0 {
  %2 = alloca ptr, align 8
  store ptr %0, ptr %2, align 8, !tbaa !7
  %3 = load ptr, ptr %2, align 8, !tbaa !7
  call void @rb_io_check_byte_readable(ptr noundef %3)
  ret void
}