; Function Attrs: nounwind sspstrong uwtable
define dso_local void @rb_io_check_readable(ptr noundef %0) local_unnamed_addr #0 {
  tail call void @rb_io_check_char_readable(ptr noundef %0)
  %2 = getelementptr inbounds nuw i8, ptr %0, i64 148
  %3 = load i32, ptr %2, align 4, !tbaa !41
  %.not.i = icmp eq i32 %3, 0
  br i1 %.not.i, label %rb_io_check_byte_readable.exit, label %4

4:                                                ; preds = %1
  %5 = load i64, ptr @rb_eIOError, align 8, !tbaa !23
  tail call void (i64, ptr, ...) @rb_raise(i64 noundef %5, ptr noundef nonnull @.str.7) #30
  unreachable

rb_io_check_byte_readable.exit:                   ; preds = %1
  ret void
}